; Function Attrs: nounwind uwtable
define dso_local void @archputs(ptr noundef %0, ptr noundef %1) local_unnamed_addr #0 {
  %3 = getelementptr inbounds nuw i8, ptr %1, i64 536
  %4 = load ptr, ptr %3, align 8
  %.not.i = icmp eq ptr %4, null
  br i1 %.not.i, label %5, label %WriteData.exit

5:                                                ; preds = %2
  tail call void (i32, i32, ptr, ...) @pg_log_generic(i32 noundef 4, i32 noundef 0, ptr noundef nonnull @.str.43) #22
  tail call void @exit_nicely(i32 noundef 1) #23
  unreachable

WriteData.exit:                                   ; preds = %2
  %6 = tail call i64 @strlen(ptr noundef nonnull dereferenceable(1) %0) #24
  %7 = getelementptr inbounds nuw i8, ptr %1, i64 232
  %8 = load ptr, ptr %7, align 8
  tail call void %8(ptr noundef nonnull %1, ptr noundef nonnull %0, i64 noundef %6) #22
  ret void
}